; Function Attrs: mustprogress uwtable
define hidden void @_ZN3smt13theory_recfun11relevant_ehEP3app(ptr noundef nonnull align 8 dereferenceable(212) %this, ptr noundef %n) unnamed_addr #3 align 2 {
entry:
  %m_util.i = getelementptr inbounds i8, ptr %this, i64 64
  %0 = load ptr, ptr %m_util.i, align 8
  %m_fid.i = getelementptr inbounds i8, ptr %0, i64 8
  %1 = load i32, ptr %m_fid.i, align 8
  %m_kind.i.i.i = getelementptr inbounds i8, ptr %n, i64 4
  %bf.load.i.i.i = load i32, ptr %m_kind.i.i.i, align 4
  %bf.clear.i.i.i = and i32 %bf.load.i.i.i, 65535
  %cmp.i.i = icmp eq i32 %bf.clear.i.i.i, 0
  br i1 %cmp.i.i, label %land.rhs.i.i, label %if.end

land.rhs.i.i:                                     ; preds = %entry
  %m_decl.i.i.i = getelementptr inbounds i8, ptr %n, i64 16
  %2 = load ptr, ptr %m_decl.i.i.i, align 8
  %m_info.i.i.i.i = getelementptr inbounds i8, ptr %2, i64 24
  %3 = load ptr, ptr %m_info.i.i.i.i, align 8
  %tobool.not.i.i.i.i = icmp eq ptr %3, null
  br i1 %tobool.not.i.i.i.i, label %if.end, label %_ZNK6recfun4util10is_definedEP4expr.exit

_ZNK6recfun4util10is_definedEP4expr.exit:         ; preds = %land.rhs.i.i
  %4 = load i32, ptr %3, align 8
  %cmp.i.i.i.i.i = icmp eq i32 %4, %1
  %m_kind.i.i.i.i.i = getelementptr inbounds i8, ptr %3, i64 4
  %5 = load i32, ptr %m_kind.i.i.i.i.i, align 4
  %cmp2.i.i.i.i.i = icmp eq i32 %5, 0
  %6 = select i1 %cmp.i.i.i.i.i, i1 %cmp2.i.i.i.i.i, i1 false
  br i1 %6, label %land.lhs.true, label %if.end

land.lhs.true:                                    ; preds = %_ZNK6recfun4util10is_definedEP4expr.exit
  %m_plugin.i = getelementptr inbounds i8, ptr %0, i64 16
  %7 = load ptr, ptr %m_plugin.i, align 8
  %call.i = tail call noundef zeroext i1 @_ZNK6recfun4decl6plugin8has_defsEv(ptr noundef nonnull align 8 dereferenceable(81) %7)
  br i1 %call.i, label %if.then, label %if.end

if.then:                                          ; preds = %land.lhs.true
  tail call void @_ZN3smt13theory_recfun16push_case_expandEP4expr(ptr noundef nonnull align 8 dereferenceable(212) %this, ptr noundef nonnull %n)
  br label %if.end

if.end:                                           ; preds = %land.rhs.i.i, %entry, %if.then, %land.lhs.true, %_ZNK6recfun4util10is_definedEP4expr.exit
  ret void
}